target datalayout = "e-m:e-p270:32:32-p271:32:32-p272:64:64-i64:64-i128:128-f80:128-n8:16:32:64-S128"
target triple = "x86_64-pc-linux-gnu"

; Function Attrs: nounwind uwtable
define hidden void @aom_highbd_convolve_copy_c(ptr noundef %0, i64 noundef %1, ptr noundef %2, i64 noundef %3, i32 noundef %4, i32 noundef %5) #0 {
  %7 = alloca ptr, align 8
  %8 = alloca i64, align 8
  %9 = alloca ptr, align 8
  %10 = alloca i64, align 8
  %11 = alloca i32, align 4
  %12 = alloca i32, align 4
  %13 = alloca i32, align 4
  store ptr %0, ptr %7, align 8
  store i64 %1, ptr %8, align 8
  store ptr %2, ptr %9, align 8
  store i64 %3, ptr %10, align 8
  store i32 %4, ptr %11, align 4
  store i32 %5, ptr %12, align 4
  store i32 0, ptr %13, align 4
  br label %14

14:                                               ; preds = %30, %6
  %15 = load i32, ptr %13, align 4
  %16 = load i32, ptr %12, align 4
  %17 = icmp slt i32 %15, %16
  br i1 %17, label %18, label %33

18:                                               ; preds = %14
  %19 = load ptr, ptr %9, align 8
  %20 = load ptr, ptr %7, align 8
  %21 = load i32, ptr %11, align 4
  %22 = sext i32 %21 to i64
  %23 = mul i64 %22, 2
  call void @llvm.memmove.p0.p0.i64(ptr align 2 %19, ptr align 2 %20, i64 %23, i1 false)
  %24 = load i64, ptr %8, align 8
  %25 = load ptr, ptr %7, align 8
  %26 = getelementptr inbounds i16, ptr %25, i64 %24
  store ptr %26, ptr %7, align 8
  %27 = load i64, ptr %10, align 8
  %28 = load ptr, ptr %9, align 8
  %29 = getelementptr inbounds i16, ptr %28, i64 %27
  store ptr %29, ptr %9, align 8
  br label %30

30:                                               ; preds = %18
  %31 = load i32, ptr %13, align 4
  %32 = add nsw i32 %31, 1
  store i32 %32, ptr %13, align 4
  br label %14, !llvm.loop !14

33:                                               ; preds = %14
  ret void
}