; Function Attrs: nofree norecurse nosync nounwind memory(argmem: readwrite) uwtable
define hidden void @aom_highbd_convolve_copy_c(ptr nocapture noundef readonly %0, i64 noundef %1, ptr nocapture noundef writeonly %2, i64 noundef %3, i32 noundef %4, i32 noundef %5) local_unnamed_addr #1 {
  %7 = icmp sgt i32 %5, 0
  br i1 %7, label %.lr.ph, label %._crit_edge

.lr.ph:                                           ; preds = %6
  %8 = sext i32 %4 to i64
  %9 = shl nsw i64 %8, 1
  br label %10

10:                                               ; preds = %.lr.ph, %10
  %.013 = phi i32 [ 0, %.lr.ph ], [ %13, %10 ]
  %.0912 = phi ptr [ %0, %.lr.ph ], [ %11, %10 ]
  %.01011 = phi ptr [ %2, %.lr.ph ], [ %12, %10 ]
  tail call void @llvm.memmove.p0.p0.i64(ptr align 2 %.01011, ptr align 2 %.0912, i64 %9, i1 false)
  %11 = getelementptr inbounds i16, ptr %.0912, i64 %1
  %12 = getelementptr inbounds i16, ptr %.01011, i64 %3
  %13 = add nuw nsw i32 %.013, 1
  %exitcond.not = icmp eq i32 %13, %5
  br i1 %exitcond.not, label %._crit_edge, label %10, !llvm.loop !18

._crit_edge:                                      ; preds = %10, %6
  ret void
}